target datalayout = "e-m:e-p270:32:32-p271:32:32-p272:64:64-i64:64-i128:128-f80:128-n8:16:32:64-S128"
target triple = "x86_64-pc-linux-gnu"

@.str.387 = private unnamed_addr constant [4 x i8] c"O|i\00", align 1

; Function Attrs: nounwind uwtable
define internal ptr @unicode_splitlines(ptr noundef %0, ptr noundef %1) #0 {
  %3 = alloca ptr, align 8
  %4 = alloca ptr, align 8
  %5 = alloca ptr, align 8
  %6 = alloca ptr, align 8
  %7 = alloca i32, align 4
  %8 = alloca i32, align 4
  store ptr %0, ptr %4, align 8, !tbaa !3
  store ptr %1, ptr %5, align 8, !tbaa !3
  call void @llvm.lifetime.start.p0(i64 8, ptr %6) #7
  call void @llvm.lifetime.start.p0(i64 4, ptr %7) #7
  store i32 0, ptr %7, align 4, !tbaa !10
  %9 = load ptr, ptr %5, align 8, !tbaa !3
  %10 = call i32 (ptr, ptr, ...) @PyArg_ParseTuple(ptr noundef %9, ptr noundef @.str.387, ptr noundef %6, ptr noundef %7)
  %11 = icmp ne i32 %10, 0
  br i1 %11, label %13, label %12

12:                                               ; preds = %2
  store ptr null, ptr %3, align 8
  store i32 1, ptr %8, align 4
  br label %25

13:                                               ; preds = %2
  br label %14

14:                                               ; preds = %13
  %15 = load ptr, ptr %6, align 8, !tbaa !3
  %16 = call ptr @Py_GetConstantBorrowed(i32 noundef 0)
  %17 = icmp eq ptr %15, %16
  br i1 %17, label %18, label %19

18:                                               ; preds = %14
  store ptr null, ptr %6, align 8, !tbaa !3
  br label %19

19:                                               ; preds = %18, %14
  br label %20

20:                                               ; preds = %19
  br label %21

21:                                               ; preds = %20
  %22 = load ptr, ptr %6, align 8, !tbaa !3
  %23 = load i32, ptr %7, align 4, !tbaa !10
  %24 = call ptr @PyUnicode_Splitlines(ptr noundef %22, i32 noundef %23)
  store ptr %24, ptr %3, align 8
  store i32 1, ptr %8, align 4
  br label %25

25:                                               ; preds = %21, %12
  call void @llvm.lifetime.end.p0(i64 4, ptr %7) #7
  call void @llvm.lifetime.end.p0(i64 8, ptr %6) #7
  %26 = load ptr, ptr %3, align 8
  ret ptr %26
}